target datalayout = "e-m:e-p270:32:32-p271:32:32-p272:64:64-i64:64-i128:128-f80:128-n8:16:32:64-S128"
target triple = "x86_64-unknown-linux-gnu"

%"class.std::__cxx11::basic_string" = type { %"struct.std::__cxx11::basic_string<char>::_Alloc_hider", i64, %union.anon }
%"struct.std::__cxx11::basic_string<char>::_Alloc_hider" = type { ptr }
%union.anon = type { i64, [8 x i8] }
%"class.cvc5::internal::theory::OutputChannel::Statistics" = type { %"class.cvc5::internal::IntStat", %"class.cvc5::internal::IntStat", %"class.cvc5::internal::IntStat", %"class.cvc5::internal::IntStat", %"class.cvc5::internal::IntStat", %"class.cvc5::internal::IntStat" }
%"class.cvc5::internal::IntStat" = type { %"class.cvc5::internal::ValueStat" }
%"class.cvc5::internal::ValueStat" = type { ptr }
%"class.cvc5::internal::theory::OutputChannel" = type <{ ptr, ptr, %"class.std::__cxx11::basic_string", %"class.cvc5::internal::theory::OutputChannel::Statistics", i32, [4 x i8] }>

; Function Attrs: mustprogress uwtable
define hidden void @_ZN4cvc58internal6theory13OutputChannelC2ERNS0_18StatisticsRegistryEPNS0_12TheoryEngineENS1_8TheoryIdE(ptr noundef nonnull align 8 dereferenceable(100) %this, ptr noundef nonnull align 8 dereferenceable(72) %sr, ptr noundef %engine, i32 noundef %theory) unnamed_addr #5 align 2 personality ptr @__gxx_personality_v0 {
entry:
  %this.addr = alloca ptr, align 8
  %sr.addr = alloca ptr, align 8
  %engine.addr = alloca ptr, align 8
  %theory.addr = alloca i32, align 4
  %ref.tmp = alloca %"class.std::__cxx11::basic_string", align 8
  %exn.slot = alloca ptr, align 8
  %ehselector.slot = alloca i32, align 4
  store ptr %this, ptr %this.addr, align 8
  store ptr %sr, ptr %sr.addr, align 8
  store ptr %engine, ptr %engine.addr, align 8
  store i32 %theory, ptr %theory.addr, align 4
  %this1 = load ptr, ptr %this.addr, align 8
  store ptr getelementptr inbounds ({ [14 x ptr] }, ptr @_ZTVN4cvc58internal6theory13OutputChannelE, i32 0, i32 0, i32 2), ptr %this1, align 8
  %d_engine = getelementptr inbounds %"class.cvc5::internal::theory::OutputChannel", ptr %this1, i32 0, i32 1
  %0 = load ptr, ptr %engine.addr, align 8
  store ptr %0, ptr %d_engine, align 8
  %d_name = getelementptr inbounds %"class.cvc5::internal::theory::OutputChannel", ptr %this1, i32 0, i32 2
  %1 = load i32, ptr %theory.addr, align 4
  call void @_ZN4cvc58internal6theory8toStringB5cxx11ENS1_8TheoryIdE(ptr sret(%"class.std::__cxx11::basic_string") align 8 %d_name, i32 noundef %1)
  %d_statistics = getelementptr inbounds %"class.cvc5::internal::theory::OutputChannel", ptr %this1, i32 0, i32 3
  %2 = load ptr, ptr %sr.addr, align 8
  %3 = load i32, ptr %theory.addr, align 4
  invoke void @_ZN4cvc58internal6theory14getStatsPrefixB5cxx11ENS1_8TheoryIdE(ptr sret(%"class.std::__cxx11::basic_string") align 8 %ref.tmp, i32 noundef %3)
          to label %invoke.cont unwind label %lpad

invoke.cont:                                      ; preds = %entry
  invoke void @_ZN4cvc58internal6theory13OutputChannel10StatisticsC1ERNS0_18StatisticsRegistryERKNSt7__cxx1112basic_stringIcSt11char_traitsIcESaIcEEE(ptr noundef nonnull align 8 dereferenceable(48) %d_statistics, ptr noundef nonnull align 8 dereferenceable(72) %2, ptr noundef nonnull align 8 dereferenceable(32) %ref.tmp)
          to label %invoke.cont3 unwind label %lpad2

invoke.cont3:                                     ; preds = %invoke.cont
  call void @_ZNSt7__cxx1112basic_stringIcSt11char_traitsIcESaIcEED1Ev(ptr noundef nonnull align 8 dereferenceable(32) %ref.tmp) #3
  %d_theory = getelementptr inbounds %"class.cvc5::internal::theory::OutputChannel", ptr %this1, i32 0, i32 4
  %4 = load i32, ptr %theory.addr, align 4
  store i32 %4, ptr %d_theory, align 8
  ret void

lpad:                                             ; preds = %entry
  %5 = landingpad { ptr, i32 }
          cleanup
  %6 = extractvalue { ptr, i32 } %5, 0
  store ptr %6, ptr %exn.slot, align 8
  %7 = extractvalue { ptr, i32 } %5, 1
  store i32 %7, ptr %ehselector.slot, align 4
  br label %ehcleanup

lpad2:                                            ; preds = %invoke.cont
  %8 = landingpad { ptr, i32 }
          cleanup
  %9 = extractvalue { ptr, i32 } %8, 0
  store ptr %9, ptr %exn.slot, align 8
  %10 = extractvalue { ptr, i32 } %8, 1
  store i32 %10, ptr %ehselector.slot, align 4
  call void @_ZNSt7__cxx1112basic_stringIcSt11char_traitsIcESaIcEED1Ev(ptr noundef nonnull align 8 dereferenceable(32) %ref.tmp) #3
  br label %ehcleanup

ehcleanup:                                        ; preds = %lpad2, %lpad
  call void @_ZNSt7__cxx1112basic_stringIcSt11char_traitsIcESaIcEED1Ev(ptr noundef nonnull align 8 dereferenceable(32) %d_name) #3
  br label %eh.resume

eh.resume:                                        ; preds = %ehcleanup
  %exn = load ptr, ptr %exn.slot, align 8
  %sel = load i32, ptr %ehselector.slot, align 4
  %lpad.val = insertvalue { ptr, i32 } poison, ptr %exn, 0
  %lpad.val4 = insertvalue { ptr, i32 } %lpad.val, i32 %sel, 1
  resume { ptr, i32 } %lpad.val4
}