; Function Attrs: mustprogress uwtable
define hidden void @_ZN4cvc58internal6theory13OutputChannelC2ERNS0_18StatisticsRegistryEPNS0_12TheoryEngineENS1_8TheoryIdE(ptr noundef nonnull align 8 dereferenceable(100) %this, ptr noundef nonnull align 8 dereferenceable(72) %sr, ptr noundef %engine, i32 noundef %theory) unnamed_addr #3 align 2 personality ptr @__gxx_personality_v0 {
entry:
  %ref.tmp = alloca %"class.std::__cxx11::basic_string", align 8
  store ptr getelementptr inbounds ({ [14 x ptr] }, ptr @_ZTVN4cvc58internal6theory13OutputChannelE, i64 0, i32 0, i64 2), ptr %this, align 8
  %d_engine = getelementptr inbounds i8, ptr %this, i64 8
  store ptr %engine, ptr %d_engine, align 8
  %d_name = getelementptr inbounds i8, ptr %this, i64 16
  tail call void @_ZN4cvc58internal6theory8toStringB5cxx11ENS1_8TheoryIdE(ptr nonnull sret(%"class.std::__cxx11::basic_string") align 8 %d_name, i32 noundef %theory)
  invoke void @_ZN4cvc58internal6theory14getStatsPrefixB5cxx11ENS1_8TheoryIdE(ptr nonnull sret(%"class.std::__cxx11::basic_string") align 8 %ref.tmp, i32 noundef %theory)
          to label %invoke.cont unwind label %lpad

invoke.cont:                                      ; preds = %entry
  %d_statistics = getelementptr inbounds i8, ptr %this, i64 48
  invoke void @_ZN4cvc58internal6theory13OutputChannel10StatisticsC2ERNS0_18StatisticsRegistryERKNSt7__cxx1112basic_stringIcSt11char_traitsIcESaIcEEE(ptr noundef nonnull align 8 dereferenceable(48) %d_statistics, ptr noundef nonnull align 8 dereferenceable(72) %sr, ptr noundef nonnull align 8 dereferenceable(32) %ref.tmp)
          to label %invoke.cont3 unwind label %lpad2

invoke.cont3:                                     ; preds = %invoke.cont
  call void @_ZNSt7__cxx1112basic_stringIcSt11char_traitsIcESaIcEED1Ev(ptr noundef nonnull align 8 dereferenceable(32) %ref.tmp) #11
  %d_theory = getelementptr inbounds i8, ptr %this, i64 96
  store i32 %theory, ptr %d_theory, align 8
  ret void

lpad:                                             ; preds = %entry
  %0 = landingpad { ptr, i32 }
          cleanup
  br label %ehcleanup

lpad2:                                            ; preds = %invoke.cont
  %1 = landingpad { ptr, i32 }
          cleanup
  call void @_ZNSt7__cxx1112basic_stringIcSt11char_traitsIcESaIcEED1Ev(ptr noundef nonnull align 8 dereferenceable(32) %ref.tmp) #11
  br label %ehcleanup

ehcleanup:                                        ; preds = %lpad2, %lpad
  %.pn = phi { ptr, i32 } [ %1, %lpad2 ], [ %0, %lpad ]
  call void @_ZNSt7__cxx1112basic_stringIcSt11char_traitsIcESaIcEED1Ev(ptr noundef nonnull align 8 dereferenceable(32) %d_name) #11
  resume { ptr, i32 } %.pn
}